; Function Attrs: mustprogress uwtable
define void @_ZN7rocksdb13CompactionJob29ReleaseSubcompactionResourcesEv(ptr nocapture noundef nonnull align 8 dereferenceable(1456) %this) local_unnamed_addr #5 align 2 personality ptr @__gxx_personality_v0 {
entry:
  %extra_num_subcompaction_threads_reserved_ = getelementptr inbounds i8, ptr %this, i64 1312
  %0 = load i32, ptr %extra_num_subcompaction_threads_reserved_, align 8
  %cmp = icmp eq i32 %0, 0
  br i1 %cmp, label %return, label %if.end

if.end:                                           ; preds = %entry
  %db_mutex_ = getelementptr inbounds i8, ptr %this, i64 1112
  %1 = load ptr, ptr %db_mutex_, align 8
  tail call void @_ZN7rocksdb17InstrumentedMutex4LockEv(ptr noundef nonnull align 8 dereferenceable(60) %1)
  invoke void @_ZN7rocksdb4port5Mutex6UnlockEv(ptr noundef nonnull align 8 dereferenceable(40) %1)
          to label %_ZN7rocksdb21InstrumentedMutexLockD2Ev.exit unwind label %terminate.lpad.i

terminate.lpad.i:                                 ; preds = %if.end
  %2 = landingpad { ptr, i32 }
          catch ptr null
  %3 = extractvalue { ptr, i32 } %2, 0
  tail call void @__clang_call_terminate(ptr %3) #29
  unreachable

_ZN7rocksdb21InstrumentedMutexLockD2Ev.exit:      ; preds = %if.end
  %4 = load i32, ptr %extra_num_subcompaction_threads_reserved_, align 8
  %cmp.i = icmp eq i32 %4, 0
  br i1 %cmp.i, label %return, label %if.end.i

if.end.i:                                         ; preds = %_ZN7rocksdb21InstrumentedMutexLockD2Ev.exit
  %5 = load ptr, ptr %db_mutex_, align 8
  tail call void @_ZN7rocksdb17InstrumentedMutex4LockEv(ptr noundef nonnull align 8 dereferenceable(60) %5)
  %env_.i = getelementptr inbounds i8, ptr %this, i64 848
  %6 = load ptr, ptr %env_.i, align 8
  %thread_pri_.i = getelementptr inbounds i8, ptr %this, i64 1232
  %7 = load i32, ptr %thread_pri_.i, align 8
  %.sroa.speculated.i = tail call i32 @llvm.smin.i32(i32 %7, i32 2)
  %vtable.i = load ptr, ptr %6, align 8
  %vfn.i = getelementptr inbounds i8, ptr %vtable.i, i64 408
  %8 = load ptr, ptr %vfn.i, align 8
  %call2.i = tail call noundef i32 %8(ptr noundef nonnull align 8 dereferenceable(72) %6, i32 noundef %4, i32 noundef %.sroa.speculated.i)
  %9 = load i32, ptr %extra_num_subcompaction_threads_reserved_, align 8
  %sub.i = sub nsw i32 %9, %call2.i
  store i32 %sub.i, ptr %extra_num_subcompaction_threads_reserved_, align 8
  %10 = load i32, ptr %thread_pri_.i, align 8
  %cmp4.i = icmp eq i32 %10, 0
  %..i = select i1 %cmp4.i, i64 1328, i64 1320
  %bg_compaction_scheduled_.i = getelementptr inbounds i8, ptr %this, i64 %..i
  %11 = load ptr, ptr %bg_compaction_scheduled_.i, align 8
  %12 = load i32, ptr %11, align 4
  %sub7.i = sub nsw i32 %12, %call2.i
  store i32 %sub7.i, ptr %11, align 4
  %13 = load ptr, ptr %db_mutex_, align 8
  tail call void @_ZN7rocksdb4port5Mutex6UnlockEv(ptr noundef nonnull align 8 dereferenceable(40) %13)
  br label %return

return:                                           ; preds = %if.end.i, %_ZN7rocksdb21InstrumentedMutexLockD2Ev.exit, %entry
  ret void
}